# SymbolsHelper-Confirmed: 6.4.0 amd64
libQt6HunspellInputMethod.so.6 libqt6hunspellinputmethod6 #MINVER#
* Build-Depends-Package: libqt6virtualkeyboard6-dev
 _Z59qml_register_types_QtQuick_VirtualKeyboard_Plugins_Hunspellv@Base 6.4.0
 _ZN17QtVirtualKeyboard16HunspellWordList10appendWordERK7QStringRK6QFlagsINS0_4FlagEE@Base 6.2.1
 _ZN17QtVirtualKeyboard16HunspellWordList10insertWordEiRK7QStringRK6QFlagsINS0_4FlagEE@Base 6.2.1
 _ZN17QtVirtualKeyboard16HunspellWordList10removeWordERK7QString@Base 6.2.1
 _ZN17QtVirtualKeyboard16HunspellWordList10updateWordEiRK7QStringRK6QFlagsINS0_4FlagEE@Base 6.2.1
 _ZN17QtVirtualKeyboard16HunspellWordList11indexOfWordERK7QString@Base 6.2.1
 _ZN17QtVirtualKeyboard16HunspellWordList11wordFlagsAtEi@Base 6.2.1
 _ZN17QtVirtualKeyboard16HunspellWordList12removeWordAtEi@Base 6.2.1
 _ZN17QtVirtualKeyboard16HunspellWordList16clearSuggestionsEv@Base 6.2.1
 _ZN17QtVirtualKeyboard16HunspellWordList18findWordCompletionERK7QString@Base 6.2.1
 _ZN17QtVirtualKeyboard16HunspellWordList18rebuildSearchIndexEv@Base 6.2.1
 _ZN17QtVirtualKeyboard16HunspellWordList5clearEv@Base 6.2.1
 _ZN17QtVirtualKeyboard16HunspellWordList6wordAtEi@Base 6.2.1
 _ZN17QtVirtualKeyboard16HunspellWordList6wordAtEiR7QStringR6QFlagsINS0_4FlagEE@Base 6.2.1
 _ZN17QtVirtualKeyboard16HunspellWordList8containsERK7QString@Base 6.2.1
 _ZN17QtVirtualKeyboard16HunspellWordList8moveWordEii@Base 6.2.1
 _ZN17QtVirtualKeyboard16HunspellWordList8setIndexEi@Base 6.2.1
 _ZN17QtVirtualKeyboard16HunspellWordListC1ERS0_@Base 6.2.1
 _ZN17QtVirtualKeyboard16HunspellWordListC1Ei@Base 6.2.1
 _ZN17QtVirtualKeyboard16HunspellWordListC2ERS0_@Base 6.2.1
 _ZN17QtVirtualKeyboard16HunspellWordListC2Ei@Base 6.2.1
 _ZN17QtVirtualKeyboard16HunspellWordListaSERS0_@Base 6.2.1
 _ZN17QtVirtualKeyboard19HunspellInputMethod10inputModesERK7QString@Base 6.2.1
 _ZN17QtVirtualKeyboard19HunspellInputMethod11qt_metacallEN11QMetaObject4CallEiPPv@Base 6.2.1
 _ZN17QtVirtualKeyboard19HunspellInputMethod11qt_metacastEPKc@Base 6.2.1
 _ZN17QtVirtualKeyboard19HunspellInputMethod11setTextCaseEN27QVirtualKeyboardInputEngine8TextCaseE@Base 6.2.1
 _ZN17QtVirtualKeyboard19HunspellInputMethod12setInputModeERK7QStringN27QVirtualKeyboardInputEngine9InputModeE@Base 6.2.1
 _ZN17QtVirtualKeyboard19HunspellInputMethod14selectionListsEv@Base 6.2.1
 _ZN17QtVirtualKeyboard19HunspellInputMethod16staticMetaObjectE@Base 6.2.1
 _ZN17QtVirtualKeyboard19HunspellInputMethod17selectionListDataEN34QVirtualKeyboardSelectionListModel4TypeEiNS1_4RoleE@Base 6.2.1
 _ZN17QtVirtualKeyboard19HunspellInputMethod22selectionListItemCountEN34QVirtualKeyboardSelectionListModel4TypeE@Base 6.2.1
 _ZN17QtVirtualKeyboard19HunspellInputMethod23selectionListRemoveItemEN34QVirtualKeyboardSelectionListModel4TypeEi@Base 6.2.1
 _ZN17QtVirtualKeyboard19HunspellInputMethod25selectionListItemSelectedEN34QVirtualKeyboardSelectionListModel4TypeEi@Base 6.2.1
 _ZN17QtVirtualKeyboard19HunspellInputMethod5resetEv@Base 6.2.1
 _ZN17QtVirtualKeyboard19HunspellInputMethod6updateEv@Base 6.2.1
 _ZN17QtVirtualKeyboard19HunspellInputMethod8keyEventEN2Qt3KeyERK7QString6QFlagsINS1_16KeyboardModifierEE@Base 6.2.1
 _ZN17QtVirtualKeyboard19HunspellInputMethod8reselectEiRK6QFlagsIN27QVirtualKeyboardInputEngine12ReselectFlagEE@Base 6.2.1
 _ZN17QtVirtualKeyboard19HunspellInputMethodC1EP7QObject@Base 6.2.1
 _ZN17QtVirtualKeyboard19HunspellInputMethodC1ERNS_26HunspellInputMethodPrivateEP7QObject@Base 6.4.0
 _ZN17QtVirtualKeyboard19HunspellInputMethodC2EP7QObject@Base 6.2.1
 _ZN17QtVirtualKeyboard19HunspellInputMethodC2ERNS_26HunspellInputMethodPrivateEP7QObject@Base 6.4.0
 _ZN17QtVirtualKeyboard19HunspellInputMethodD0Ev@Base 6.2.1
 _ZN17QtVirtualKeyboard19HunspellInputMethodD1Ev@Base 6.2.1
 _ZN17QtVirtualKeyboard19HunspellInputMethodD2Ev@Base 6.2.1
 _ZN17QtVirtualKeyboard26HunspellInputMethodPrivate14createHunspellERK7QString@Base 6.2.1
 _ZN17QtVirtualKeyboard26HunspellInputMethodPrivate15addToDictionaryEv@Base 6.2.1
 _ZN17QtVirtualKeyboard26HunspellInputMethodPrivate16clearSuggestionsEb@Base 6.2.1
 _ZN17QtVirtualKeyboard26HunspellInputMethodPrivate17updateSuggestionsEv@Base 6.2.1
 _ZN17QtVirtualKeyboard26HunspellInputMethodPrivate20removeFromDictionaryERK7QString@Base 6.2.1
 _ZN17QtVirtualKeyboard26HunspellInputMethodPrivate21userDictionaryMaxSizeE@Base 6.2.1
 _ZN17QtVirtualKeyboard26HunspellInputMethodPrivate23dictionaryLoadCompletedEb@Base 6.4.0
 _ZN17QtVirtualKeyboard26HunspellInputMethodPrivate26updateSuggestionsCompletedERK14QSharedPointerINS_16HunspellWordListEEi@Base 6.4.0
 _ZN17QtVirtualKeyboard26HunspellInputMethodPrivate28clearSuggestionsRelatedTasksEv@Base 6.2.1
 _ZN17QtVirtualKeyboard26HunspellInputMethodPrivate5resetEv@Base 6.2.1
 _ZN17QtVirtualKeyboard26HunspellInputMethodPrivateC1EPNS_19HunspellInputMethodE@Base 6.2.1
 _ZN17QtVirtualKeyboard26HunspellInputMethodPrivateC2EPNS_19HunspellInputMethodE@Base 6.2.1
 _ZN17QtVirtualKeyboard26HunspellInputMethodPrivateD0Ev@Base 6.4.0
 _ZN17QtVirtualKeyboard26HunspellInputMethodPrivateD1Ev@Base 6.2.1
 _ZN17QtVirtualKeyboard26HunspellInputMethodPrivateD2Ev@Base 6.2.1
 _ZNK17QtVirtualKeyboard16HunspellWordList14hasSuggestionsEv@Base 6.2.1
 _ZNK17QtVirtualKeyboard16HunspellWordList4sizeEv@Base 6.2.1
 _ZNK17QtVirtualKeyboard16HunspellWordList5indexEv@Base 6.2.1
 _ZNK17QtVirtualKeyboard16HunspellWordList7isEmptyEv@Base 6.2.1
 _ZNK17QtVirtualKeyboard19HunspellInputMethod10metaObjectEv@Base 6.2.1
 _ZNK17QtVirtualKeyboard26HunspellInputMethodPrivate13addToHunspellERK14QSharedPointerINS_16HunspellWordListEE@Base 6.2.1
 _ZNK17QtVirtualKeyboard26HunspellInputMethodPrivate16isValidInputCharERK5QChar@Base 6.2.1
 _ZNK17QtVirtualKeyboard26HunspellInputMethodPrivate18isAutoSpaceAllowedEv@Base 6.2.1
 _ZNK17QtVirtualKeyboard26HunspellInputMethodPrivate18removeFromHunspellERK14QSharedPointerINS_16HunspellWordListEE@Base 6.2.1
 _ZNK17QtVirtualKeyboard26HunspellInputMethodPrivate20loadCustomDictionaryERK14QSharedPointerINS_16HunspellWordListEERK7QString@Base 6.2.1
 _ZNK17QtVirtualKeyboard26HunspellInputMethodPrivate20saveCustomDictionaryERK14QSharedPointerINS_16HunspellWordListEERK7QString@Base 6.2.1
 _ZNK17QtVirtualKeyboard26HunspellInputMethodPrivate24customDictionaryLocationERK7QString@Base 6.2.1
 _ZNK17QtVirtualKeyboard26HunspellInputMethodPrivate8isJoinerERK5QChar@Base 6.2.1
 _ZTI42QVirtualKeyboardAbstractInputMethodPrivate@Base 6.4.0
 _ZTIN17QtVirtualKeyboard19HunspellInputMethodE@Base 6.2.1
 _ZTIN17QtVirtualKeyboard26HunspellInputMethodPrivateE@Base 6.4.0
 _ZTS42QVirtualKeyboardAbstractInputMethodPrivate@Base 6.4.0
 _ZTSN17QtVirtualKeyboard19HunspellInputMethodE@Base 6.2.1
 _ZTSN17QtVirtualKeyboard26HunspellInputMethodPrivateE@Base 6.4.0
 _ZTVN17QtVirtualKeyboard19HunspellInputMethodE@Base 6.2.1
 _ZTVN17QtVirtualKeyboard26HunspellInputMethodPrivateE@Base 6.4.0
