# SymbolsHelper-Confirmed: 6.6.1 amd64
libQt6VirtualKeyboard.so.6 libqt6virtualkeyboard6 #MINVER#
* Build-Depends-Package: qt6-virtualkeyboard-dev
 Qt_6@Qt_6 6.6.1
 (symver)Qt_6_PRIVATE_API 0
 _Z42qml_register_types_QtQuick_VirtualKeyboardv@Qt_6 6.6.1
 _ZGVZN9QMetaType21registerConverterImplI5QListIiE9QIterableI13QMetaSequenceEEEbSt8functionIFbPKvPvEES_S_E10unregister@Qt_6 6.6.1
 _ZGVZN9QMetaType23registerMutableViewImplI5QListIiE9QIterableI13QMetaSequenceEEEbSt8functionIFbPvS7_EES_S_E10unregister@Qt_6 6.6.1
 _ZN13QMetaSequence12MetaSequenceI5QListIiEE5valueE@Qt_6 6.6.1
 _ZN17QtVirtualKeyboard16staticMetaObjectE@Qt_6 6.6.1
 _ZN21QVirtualKeyboardTrace10setOpacityEd@Qt_6 6.6.1
 _ZN21QVirtualKeyboardTrace10setTraceIdEi@Qt_6 6.6.1
 _ZN21QVirtualKeyboardTrace10timerEventEP11QTimerEvent@Qt_6 6.6.1
 _ZN21QVirtualKeyboardTrace11qt_metacallEN11QMetaObject4CallEiPPv@Qt_6 6.6.1
 _ZN21QVirtualKeyboardTrace11qt_metacastEPKc@Qt_6 6.6.1
 _ZN21QVirtualKeyboardTrace11setCanceledEb@Qt_6 6.6.1
 _ZN21QVirtualKeyboardTrace11setChannelsERK5QListI7QStringE@Qt_6 6.6.1
 _ZN21QVirtualKeyboardTrace12finalChangedEb@Qt_6 6.6.1
 _ZN21QVirtualKeyboardTrace13lengthChangedEi@Qt_6 6.6.1
 _ZN21QVirtualKeyboardTrace14opacityChangedEd@Qt_6 6.6.1
 _ZN21QVirtualKeyboardTrace14setChannelDataERK7QStringiRK8QVariant@Qt_6 6.6.1
 _ZN21QVirtualKeyboardTrace14startHideTimerEi@Qt_6 6.6.1
 _ZN21QVirtualKeyboardTrace14traceIdChangedEi@Qt_6 6.6.1
 _ZN21QVirtualKeyboardTrace15canceledChangedEb@Qt_6 6.6.1
 _ZN21QVirtualKeyboardTrace15channelsChangedEv@Qt_6 6.6.1
 _ZN21QVirtualKeyboardTrace16staticMetaObjectE@Qt_6 6.6.1
 _ZN21QVirtualKeyboardTrace8addPointERK7QPointF@Qt_6 6.6.1
 _ZN21QVirtualKeyboardTrace8setFinalEb@Qt_6 6.6.1
 _ZN21QVirtualKeyboardTraceC1EP7QObject@Qt_6 6.6.1
 _ZN21QVirtualKeyboardTraceC2EP7QObject@Qt_6 6.6.1
 _ZN21QVirtualKeyboardTraceD0Ev@Qt_6 6.6.1
 _ZN21QVirtualKeyboardTraceD1Ev@Qt_6 6.6.1
 _ZN21QVirtualKeyboardTraceD2Ev@Qt_6 6.6.1
 _ZN24QVirtualKeyboardFeatures16staticMetaObjectE@Qt_6 6.6.1
 _ZN24QVirtualKeyboardObserver11qt_metacallEN11QMetaObject4CallEiPPv@Qt_6 6.6.1
 _ZN24QVirtualKeyboardObserver11qt_metacastEPKc@Qt_6 6.6.1
 _ZN24QVirtualKeyboardObserver13layoutChangedEv@Qt_6 6.6.1
 _ZN24QVirtualKeyboardObserver16invalidateLayoutEv@Qt_6 6.6.1
 _ZN24QVirtualKeyboardObserver16staticMetaObjectE@Qt_6 6.6.1
 _ZN24QVirtualKeyboardObserver6layoutEv@Qt_6 6.6.1
 _ZN24QVirtualKeyboardObserverC1EP7QObject@Qt_6 6.6.1
 _ZN24QVirtualKeyboardObserverC2EP7QObject@Qt_6 6.6.1
 _ZN26QVirtualKeyboardDictionary11qt_metacallEN11QMetaObject4CallEiPPv@Qt_6 6.6.1
 _ZN26QVirtualKeyboardDictionary11qt_metacastEPKc@Qt_6 6.6.1
 _ZN26QVirtualKeyboardDictionary11setContentsERK5QListI7QStringE@Qt_6 6.6.1
 _ZN26QVirtualKeyboardDictionary15contentsChangedEv@Qt_6 6.6.1
 _ZN26QVirtualKeyboardDictionary16staticMetaObjectE@Qt_6 6.6.1
 _ZN26QVirtualKeyboardDictionaryC1ERK7QStringP7QObject@Qt_6 6.6.1
 _ZN26QVirtualKeyboardDictionaryC2ERK7QStringP7QObject@Qt_6 6.6.1
 _ZN27QVirtualKeyboardInputEngine10timerEventEP11QTimerEvent@Qt_6 6.6.1
 _ZN27QVirtualKeyboardInputEngine10traceBeginEiNS_22PatternRecognitionModeERK4QMapI7QString8QVariantES6_@Qt_6 6.6.1
 _ZN27QVirtualKeyboardInputEngine11qt_metacallEN11QMetaObject4CallEiPPv@Qt_6 6.6.1
 _ZN27QVirtualKeyboardInputEngine11qt_metacastEPKc@Qt_6 6.6.1
 _ZN27QVirtualKeyboardInputEngine12setInputModeENS_9InputModeE@Qt_6 6.6.1
 _ZN27QVirtualKeyboardInputEngine12shiftChangedEv@Qt_6 6.6.1
 _ZN27QVirtualKeyboardInputEngine14setInputMethodEP35QVirtualKeyboardAbstractInputMethod@Qt_6 6.6.1
 _ZN27QVirtualKeyboardInputEngine15virtualKeyClickEN2Qt3KeyERK7QString6QFlagsINS0_16KeyboardModifierEE@Qt_6 6.6.1
 _ZN27QVirtualKeyboardInputEngine15virtualKeyPressEN2Qt3KeyERK7QString6QFlagsINS0_16KeyboardModifierEEb@Qt_6 6.6.1
 _ZN27QVirtualKeyboardInputEngine16activeKeyChangedEN2Qt3KeyE@Qt_6 6.6.1
 _ZN27QVirtualKeyboardInputEngine16clickPreeditTextEi@Qt_6 6.6.1
 _ZN27QVirtualKeyboardInputEngine16inputMethodResetEv@Qt_6 6.6.1
 _ZN27QVirtualKeyboardInputEngine16inputModeChangedEv@Qt_6 6.6.1
 _ZN27QVirtualKeyboardInputEngine16staticMetaObjectE@Qt_6 6.6.1
 _ZN27QVirtualKeyboardInputEngine16updateInputModesEv@Qt_6 6.6.1
 _ZN27QVirtualKeyboardInputEngine16virtualKeyCancelEv@Qt_6 6.6.1
 _ZN27QVirtualKeyboardInputEngine17inputMethodUpdateEv@Qt_6 6.6.1
 _ZN27QVirtualKeyboardInputEngine17inputModesChangedEv@Qt_6 6.6.1
 _ZN27QVirtualKeyboardInputEngine17virtualKeyClickedEN2Qt3KeyERK7QString6QFlagsINS0_16KeyboardModifierEEb@Qt_6 6.6.1
 _ZN27QVirtualKeyboardInputEngine17virtualKeyReleaseEN2Qt3KeyERK7QString6QFlagsINS0_16KeyboardModifierEE@Qt_6 6.6.1
 _ZN27QVirtualKeyboardInputEngine18inputMethodChangedEv@Qt_6 6.6.1
 _ZN27QVirtualKeyboardInputEngine18previousKeyChangedEN2Qt3KeyE@Qt_6 6.6.1
 _ZN27QVirtualKeyboardInputEngine25updateSelectionListModelsEv@Qt_6 6.6.1
 _ZN27QVirtualKeyboardInputEngine29wordCandidateListModelChangedEv@Qt_6 6.6.1
 _ZN27QVirtualKeyboardInputEngine30patternRecognitionModesChangedEv@Qt_6 6.6.1
 _ZN27QVirtualKeyboardInputEngine35wordCandidateListVisibleHintChangedEv@Qt_6 6.6.1
 _ZN27QVirtualKeyboardInputEngine4initEv@Qt_6 6.6.1
 _ZN27QVirtualKeyboardInputEngine5resetEv@Qt_6 6.6.1
 _ZN27QVirtualKeyboardInputEngine6updateEv@Qt_6 6.6.1
 _ZN27QVirtualKeyboardInputEngine8reselectEiRK6QFlagsINS_12ReselectFlagEE@Qt_6 6.6.1
 _ZN27QVirtualKeyboardInputEngine8traceEndEP21QVirtualKeyboardTrace@Qt_6 6.6.1
 _ZN27QVirtualKeyboardInputEngineC1EP28QVirtualKeyboardInputContext@Qt_6 6.6.1
 _ZN27QVirtualKeyboardInputEngineC2EP28QVirtualKeyboardInputContext@Qt_6 6.6.1
 _ZN27QVirtualKeyboardInputEngineD0Ev@Qt_6 6.6.1
 _ZN27QVirtualKeyboardInputEngineD1Ev@Qt_6 6.6.1
 _ZN27QVirtualKeyboardInputEngineD2Ev@Qt_6 6.6.1
 _ZN28QVirtualKeyboardInputContext11qt_metacallEN11QMetaObject4CallEiPPv@Qt_6 6.6.1
 _ZN28QVirtualKeyboardInputContext11qt_metacastEPKc@Qt_6 6.6.1
 _ZN28QVirtualKeyboardInputContext12sendKeyClickEiRK7QStringi@Qt_6 6.6.1
 _ZN28QVirtualKeyboardInputContext12setAnimatingEb@Qt_6 6.6.1
 _ZN28QVirtualKeyboardInputContext13localeChangedEv@Qt_6 6.6.1
 _ZN28QVirtualKeyboardInputContext14setPreeditTextERK7QString5QListIN17QInputMethodEvent9AttributeEEii@Qt_6 6.6.1
 _ZN28QVirtualKeyboardInputContext16animatingChangedEv@Qt_6 6.6.1
 _ZN28QVirtualKeyboardInputContext16inputItemChangedEv@Qt_6 6.6.1
 _ZN28QVirtualKeyboardInputContext16staticMetaObjectE@Qt_6 6.6.1
 _ZN28QVirtualKeyboardInputContext16uppercaseChangedEv@Qt_6 6.6.1
 _ZN28QVirtualKeyboardInputContext18preeditTextChangedEv@Qt_6 6.6.1
 _ZN28QVirtualKeyboardInputContext18shiftActiveChangedEv@Qt_6 6.6.1
 _ZN28QVirtualKeyboardInputContext19selectedTextChangedEv@Qt_6 6.6.1
 _ZN28QVirtualKeyboardInputContext21anchorPositionChangedEv@Qt_6 6.6.1
 _ZN28QVirtualKeyboardInputContext21capsLockActiveChangedEv@Qt_6 6.6.1
 _ZN28QVirtualKeyboardInputContext21cursorPositionChangedEv@Qt_6 6.6.1
 _ZN28QVirtualKeyboardInputContext22anchorRectangleChangedEv@Qt_6 6.6.1
 _ZN28QVirtualKeyboardInputContext22cursorRectangleChangedEv@Qt_6 6.6.1
 _ZN28QVirtualKeyboardInputContext22surroundingTextChangedEv@Qt_6 6.6.1
 _ZN28QVirtualKeyboardInputContext23inputMethodHintsChangedEv@Qt_6 6.6.1
 _ZN28QVirtualKeyboardInputContext25setSelectionOnFocusObjectERK7QPointFS2_@Qt_6 6.6.1
 _ZN28QVirtualKeyboardInputContext30selectionControlVisibleChangedEv@Qt_6 6.6.1
 _ZN28QVirtualKeyboardInputContext35anchorRectIntersectsClipRectChangedEv@Qt_6 6.6.1
 _ZN28QVirtualKeyboardInputContext35cursorRectIntersectsClipRectChangedEv@Qt_6 6.6.1
 _ZN28QVirtualKeyboardInputContext5clearEv@Qt_6 6.6.1
 _ZN28QVirtualKeyboardInputContext6commitERK7QStringii@Qt_6 6.6.1
 _ZN28QVirtualKeyboardInputContext6commitEv@Qt_6 6.6.1
 _ZN28QVirtualKeyboardInputContextC1EP7QObject@Qt_6 6.6.1
 _ZN28QVirtualKeyboardInputContextC2EP7QObject@Qt_6 6.6.1
 _ZN28QVirtualKeyboardInputContextD0Ev@Qt_6 6.6.1
 _ZN28QVirtualKeyboardInputContextD1Ev@Qt_6 6.6.1
 _ZN28QVirtualKeyboardInputContextD2Ev@Qt_6 6.6.1
 _ZN33QVirtualKeyboardDictionaryManager11qt_metacallEN11QMetaObject4CallEiPPv@Qt_6 6.6.1
 _ZN33QVirtualKeyboardDictionaryManager11qt_metacastEPKc@Qt_6 6.6.1
 _ZN33QVirtualKeyboardDictionaryManager16createDictionaryERK7QString@Qt_6 6.6.1
 _ZN33QVirtualKeyboardDictionaryManager16staticMetaObjectE@Qt_6 6.6.1
 _ZN33QVirtualKeyboardDictionaryManager19setBaseDictionariesERK5QListI7QStringE@Qt_6 6.6.1
 _ZN33QVirtualKeyboardDictionaryManager20setExtraDictionariesERK5QListI7QStringE@Qt_6 6.6.1
 _ZN33QVirtualKeyboardDictionaryManager23baseDictionariesChangedEv@Qt_6 6.6.1
 _ZN33QVirtualKeyboardDictionaryManager24extraDictionariesChangedEv@Qt_6 6.6.1
 _ZN33QVirtualKeyboardDictionaryManager25activeDictionariesChangedEv@Qt_6 6.6.1
 _ZN33QVirtualKeyboardDictionaryManager28availableDictionariesChangedEv@Qt_6 6.6.1
 _ZN33QVirtualKeyboardDictionaryManager8instanceEv@Qt_6 6.6.1
 _ZN33QVirtualKeyboardDictionaryManagerC1EP7QObject@Qt_6 6.6.1
 _ZN33QVirtualKeyboardDictionaryManagerC2EP7QObject@Qt_6 6.6.1
 _ZN34QVirtualKeyboardSelectionListModel10removeItemEi@Qt_6 6.6.1
 _ZN34QVirtualKeyboardSelectionListModel10selectItemEi@Qt_6 6.6.1
 _ZN34QVirtualKeyboardSelectionListModel11qt_metacallEN11QMetaObject4CallEiPPv@Qt_6 6.6.1
 _ZN34QVirtualKeyboardSelectionListModel11qt_metacastEPKc@Qt_6 6.6.1
 _ZN34QVirtualKeyboardSelectionListModel12countChangedEv@Qt_6 6.6.1
 _ZN34QVirtualKeyboardSelectionListModel12itemSelectedEi@Qt_6 6.6.1
 _ZN34QVirtualKeyboardSelectionListModel13setDataSourceEP35QVirtualKeyboardAbstractInputMethodNS_4TypeE@Qt_6 6.6.1
 _ZN34QVirtualKeyboardSelectionListModel16staticMetaObjectE@Qt_6 6.6.1
 _ZN34QVirtualKeyboardSelectionListModel17activeItemChangedEi@Qt_6 6.6.1
 _ZN34QVirtualKeyboardSelectionListModel19dataSourceDestroyedEv@Qt_6 6.6.1
 _ZN34QVirtualKeyboardSelectionListModel20selectionListChangedENS_4TypeE@Qt_6 6.6.1
 _ZN34QVirtualKeyboardSelectionListModel30selectionListActiveItemChangedENS_4TypeEi@Qt_6 6.6.1
 _ZN34QVirtualKeyboardSelectionListModelC1EP7QObject@Qt_6 6.6.1
 _ZN34QVirtualKeyboardSelectionListModelC2EP7QObject@Qt_6 6.6.1
 _ZN34QVirtualKeyboardSelectionListModelD0Ev@Qt_6 6.6.1
 _ZN34QVirtualKeyboardSelectionListModelD1Ev@Qt_6 6.6.1
 _ZN34QVirtualKeyboardSelectionListModelD2Ev@Qt_6 6.6.1
 _ZN35QVirtualKeyboardAbstractInputMethod10traceBeginEiN27QVirtualKeyboardInputEngine22PatternRecognitionModeERK4QMapI7QString8QVariantES7_@Qt_6 6.6.1
 _ZN35QVirtualKeyboardAbstractInputMethod11qt_metacallEN11QMetaObject4CallEiPPv@Qt_6 6.6.1
 _ZN35QVirtualKeyboardAbstractInputMethod11qt_metacastEPKc@Qt_6 6.6.1
 _ZN35QVirtualKeyboardAbstractInputMethod14clearInputModeEv@Qt_6 6.6.1
 _ZN35QVirtualKeyboardAbstractInputMethod14selectionListsEv@Qt_6 6.6.1
 _ZN35QVirtualKeyboardAbstractInputMethod14setInputEngineEP27QVirtualKeyboardInputEngine@Qt_6 6.6.1
 _ZN35QVirtualKeyboardAbstractInputMethod16clickPreeditTextEi@Qt_6 6.6.1
 _ZN35QVirtualKeyboardAbstractInputMethod16staticMetaObjectE@Qt_6 6.6.1
 _ZN35QVirtualKeyboardAbstractInputMethod17selectionListDataEN34QVirtualKeyboardSelectionListModel4TypeEiNS0_4RoleE@Qt_6 6.6.1
 _ZN35QVirtualKeyboardAbstractInputMethod20selectionListChangedEN34QVirtualKeyboardSelectionListModel4TypeE@Qt_6 6.6.1
 _ZN35QVirtualKeyboardAbstractInputMethod21selectionListsChangedEv@Qt_6 6.6.1
 _ZN35QVirtualKeyboardAbstractInputMethod22selectionListItemCountEN34QVirtualKeyboardSelectionListModel4TypeE@Qt_6 6.6.1
 _ZN35QVirtualKeyboardAbstractInputMethod23selectionListRemoveItemEN34QVirtualKeyboardSelectionListModel4TypeEi@Qt_6 6.6.1
 _ZN35QVirtualKeyboardAbstractInputMethod25selectionListItemSelectedEN34QVirtualKeyboardSelectionListModel4TypeEi@Qt_6 6.6.1
 _ZN35QVirtualKeyboardAbstractInputMethod30selectionListActiveItemChangedEN34QVirtualKeyboardSelectionListModel4TypeEi@Qt_6 6.6.1
 _ZN35QVirtualKeyboardAbstractInputMethod5resetEv@Qt_6 6.6.1
 _ZN35QVirtualKeyboardAbstractInputMethod6updateEv@Qt_6 6.6.1
 _ZN35QVirtualKeyboardAbstractInputMethod8reselectEiRK6QFlagsIN27QVirtualKeyboardInputEngine12ReselectFlagEE@Qt_6 6.6.1
 _ZN35QVirtualKeyboardAbstractInputMethod8traceEndEP21QVirtualKeyboardTrace@Qt_6 6.6.1
 _ZN35QVirtualKeyboardAbstractInputMethodC1EP7QObject@Qt_6 6.6.1
 _ZN35QVirtualKeyboardAbstractInputMethodC2EP7QObject@Qt_6 6.6.1
 _ZN35QVirtualKeyboardAbstractInputMethodD0Ev@Qt_6 6.6.1
 _ZN35QVirtualKeyboardAbstractInputMethodD1Ev@Qt_6 6.6.1
 _ZN35QVirtualKeyboardAbstractInputMethodD2Ev@Qt_6 6.6.1
 _ZNK21QVirtualKeyboardTrace10isCanceledEv@Qt_6 6.6.1
 _ZNK21QVirtualKeyboardTrace10metaObjectEv@Qt_6 6.6.1
 _ZNK21QVirtualKeyboardTrace11channelDataERK7QStringii@Qt_6 6.6.1
 _ZNK21QVirtualKeyboardTrace6lengthEv@Qt_6 6.6.1
 _ZNK21QVirtualKeyboardTrace6pointsEii@Qt_6 6.6.1
 _ZNK21QVirtualKeyboardTrace7isFinalEv@Qt_6 6.6.1
 _ZNK21QVirtualKeyboardTrace7opacityEv@Qt_6 6.6.1
 _ZNK21QVirtualKeyboardTrace7traceIdEv@Qt_6 6.6.1
 _ZNK21QVirtualKeyboardTrace8channelsEv@Qt_6 6.6.1
 _ZNK24QVirtualKeyboardObserver10metaObjectEv@Qt_6 6.6.1
 _ZNK26QVirtualKeyboardDictionary10metaObjectEv@Qt_6 6.6.1
 _ZNK26QVirtualKeyboardDictionary4nameEv@Qt_6 6.6.1
 _ZNK26QVirtualKeyboardDictionary8contentsEv@Qt_6 6.6.1
 _ZNK27QVirtualKeyboardInputEngine10inputModesEv@Qt_6 6.6.1
 _ZNK27QVirtualKeyboardInputEngine10metaObjectEv@Qt_6 6.6.1
 _ZNK27QVirtualKeyboardInputEngine11inputMethodEv@Qt_6 6.6.1
 _ZNK27QVirtualKeyboardInputEngine11previousKeyEv@Qt_6 6.6.1
 _ZNK27QVirtualKeyboardInputEngine12inputContextEv@Qt_6 6.6.1
 _ZNK27QVirtualKeyboardInputEngine22wordCandidateListModelEv@Qt_6 6.6.1
 _ZNK27QVirtualKeyboardInputEngine23patternRecognitionModesEv@Qt_6 6.6.1
 _ZNK27QVirtualKeyboardInputEngine28wordCandidateListVisibleHintEv@Qt_6 6.6.1
 _ZNK27QVirtualKeyboardInputEngine9activeKeyEv@Qt_6 6.6.1
 _ZNK27QVirtualKeyboardInputEngine9inputModeEv@Qt_6 6.6.1
 _ZNK28QVirtualKeyboardInputContext10metaObjectEv@Qt_6 6.6.1
 _ZNK28QVirtualKeyboardInputContext11inputEngineEv@Qt_6 6.6.1
 _ZNK28QVirtualKeyboardInputContext11isAnimatingEv@Qt_6 6.6.1
 _ZNK28QVirtualKeyboardInputContext11isUppercaseEv@Qt_6 6.6.1
 _ZNK28QVirtualKeyboardInputContext11preeditTextEv@Qt_6 6.6.1
 _ZNK28QVirtualKeyboardInputContext12selectedTextEv@Qt_6 6.6.1
 _ZNK28QVirtualKeyboardInputContext13isShiftActiveEv@Qt_6 6.6.1
 _ZNK28QVirtualKeyboardInputContext14anchorPositionEv@Qt_6 6.6.1
 _ZNK28QVirtualKeyboardInputContext14cursorPositionEv@Qt_6 6.6.1
 _ZNK28QVirtualKeyboardInputContext15anchorRectangleEv@Qt_6 6.6.1
 _ZNK28QVirtualKeyboardInputContext15cursorRectangleEv@Qt_6 6.6.1
 _ZNK28QVirtualKeyboardInputContext15surroundingTextEv@Qt_6 6.6.1
 _ZNK28QVirtualKeyboardInputContext16inputMethodHintsEv@Qt_6 6.6.1
 _ZNK28QVirtualKeyboardInputContext16isCapsLockActiveEv@Qt_6 6.6.1
 _ZNK28QVirtualKeyboardInputContext16keyboardObserverEv@Qt_6 6.6.1
 _ZNK28QVirtualKeyboardInputContext21preeditTextAttributesEv@Qt_6 6.6.1
 _ZNK28QVirtualKeyboardInputContext25isSelectionControlVisibleEv@Qt_6 6.6.1
 _ZNK28QVirtualKeyboardInputContext28anchorRectIntersectsClipRectEv@Qt_6 6.6.1
 _ZNK28QVirtualKeyboardInputContext28cursorRectIntersectsClipRectEv@Qt_6 6.6.1
 _ZNK28QVirtualKeyboardInputContext4privEv@Qt_6 6.6.1
 _ZNK28QVirtualKeyboardInputContext6localeEv@Qt_6 6.6.1
 _ZNK28QVirtualKeyboardInputContext9inputItemEv@Qt_6 6.6.1
 _ZNK33QVirtualKeyboardDictionaryManager10dictionaryERK7QString@Qt_6 6.6.1
 _ZNK33QVirtualKeyboardDictionaryManager10metaObjectEv@Qt_6 6.6.1
 _ZNK33QVirtualKeyboardDictionaryManager16baseDictionariesEv@Qt_6 6.6.1
 _ZNK33QVirtualKeyboardDictionaryManager17extraDictionariesEv@Qt_6 6.6.1
 _ZNK33QVirtualKeyboardDictionaryManager18activeDictionariesEv@Qt_6 6.6.1
 _ZNK33QVirtualKeyboardDictionaryManager21availableDictionariesEv@Qt_6 6.6.1
 _ZNK34QVirtualKeyboardSelectionListModel10dataSourceEv@Qt_6 6.6.1
 _ZNK34QVirtualKeyboardSelectionListModel10metaObjectEv@Qt_6 6.6.1
 _ZNK34QVirtualKeyboardSelectionListModel4dataERK11QModelIndexi@Qt_6 6.6.1
 _ZNK34QVirtualKeyboardSelectionListModel5countEv@Qt_6 6.6.1
 _ZNK34QVirtualKeyboardSelectionListModel6dataAtEiNS_4RoleE@Qt_6 6.6.1
 _ZNK34QVirtualKeyboardSelectionListModel8rowCountERK11QModelIndex@Qt_6 6.6.1
 _ZNK34QVirtualKeyboardSelectionListModel9roleNamesEv@Qt_6 6.6.1
 _ZNK35QVirtualKeyboardAbstractInputMethod10metaObjectEv@Qt_6 6.6.1
 _ZNK35QVirtualKeyboardAbstractInputMethod11inputEngineEv@Qt_6 6.6.1
 _ZNK35QVirtualKeyboardAbstractInputMethod12inputContextEv@Qt_6 6.6.1
 _ZNK35QVirtualKeyboardAbstractInputMethod23patternRecognitionModesEv@Qt_6 6.6.1
 _ZTI21QVirtualKeyboardTrace@Qt_6 6.6.1
 _ZTI24QVirtualKeyboardObserver@Qt_6 6.6.1
 _ZTI26QVirtualKeyboardDictionary@Qt_6 6.6.1
 _ZTI27QVirtualKeyboardInputEngine@Qt_6 6.6.1
 _ZTI28QVirtualKeyboardInputContext@Qt_6 6.6.1
 _ZTI33QVirtualKeyboardDictionaryManager@Qt_6 6.6.1
 _ZTI34QVirtualKeyboardSelectionListModel@Qt_6 6.6.1
 _ZTI35QVirtualKeyboardAbstractInputMethod@Qt_6 6.6.1
 _ZTIZN9QMetaType17registerConverterI5QListIiE9QIterableI13QMetaSequenceEN9QtPrivate33QSequentialIterableConvertFunctorIS2_EEEEbT1_EUlPKvPvE_@Qt_6 6.6.1
 _ZTIZN9QMetaType19registerMutableViewI5QListIiE9QIterableI13QMetaSequenceEN9QtPrivate37QSequentialIterableMutableViewFunctorIS2_EEEEbT1_EUlPvSA_E_@Qt_6 6.6.1
 _ZTS21QVirtualKeyboardTrace@Qt_6 6.6.1
 _ZTS24QVirtualKeyboardObserver@Qt_6 6.6.1
 _ZTS26QVirtualKeyboardDictionary@Qt_6 6.6.1
 _ZTS27QVirtualKeyboardInputEngine@Qt_6 6.6.1
 _ZTS28QVirtualKeyboardInputContext@Qt_6 6.6.1
 _ZTS33QVirtualKeyboardDictionaryManager@Qt_6 6.6.1
 _ZTS34QVirtualKeyboardSelectionListModel@Qt_6 6.6.1
 _ZTS35QVirtualKeyboardAbstractInputMethod@Qt_6 6.6.1
 _ZTSZN9QMetaType17registerConverterI5QListIiE9QIterableI13QMetaSequenceEN9QtPrivate33QSequentialIterableConvertFunctorIS2_EEEEbT1_EUlPKvPvE_@Qt_6 6.6.1
 _ZTSZN9QMetaType19registerMutableViewI5QListIiE9QIterableI13QMetaSequenceEN9QtPrivate37QSequentialIterableMutableViewFunctorIS2_EEEEbT1_EUlPvSA_E_@Qt_6 6.6.1
 _ZTV21QVirtualKeyboardTrace@Qt_6 6.6.1
 _ZTV24QVirtualKeyboardObserver@Qt_6 6.6.1
 _ZTV26QVirtualKeyboardDictionary@Qt_6 6.6.1
 _ZTV27QVirtualKeyboardInputEngine@Qt_6 6.6.1
 _ZTV28QVirtualKeyboardInputContext@Qt_6 6.6.1
 _ZTV33QVirtualKeyboardDictionaryManager@Qt_6 6.6.1
 _ZTV34QVirtualKeyboardSelectionListModel@Qt_6 6.6.1
 _ZTV35QVirtualKeyboardAbstractInputMethod@Qt_6 6.6.1
 (optional=templinst)_ZZN9QMetaType21registerConverterImplI5QListIiE9QIterableI13QMetaSequenceEEEbSt8functionIFbPKvPvEES_S_E10unregister@Qt_6 6.6.1
 (optional=templinst)_ZZN9QMetaType23registerMutableViewImplI5QListIiE9QIterableI13QMetaSequenceEEEbSt8functionIFbPvS7_EES_S_E10unregister@Qt_6 6.6.1
